; Function Attrs: mustprogress uwtable
define hidden void @_ZN2cv3hal12cpu_baseline9cvt32f16fEPKfPNS_6hfloatEi(ptr nocapture noundef readonly %0, ptr nocapture noundef writeonly %1, i32 noundef %2) local_unnamed_addr #0 personality ptr @__gxx_personality_v0 {
  %4 = alloca %"class.cv::utils::trace::details::Region", align 8
  call void @_ZN2cv5utils5trace7details6RegionC1ERKNS3_21LocationStaticStorageE(ptr noundef nonnull align 8 dereferenceable(12) %4, ptr noundef nonnull align 8 dereferenceable(32) @_ZZN2cv3hal12cpu_baseline9cvt32f16fEPKfPNS_6hfloatEiE24__cv_trace_location_fn61)
  %5 = icmp sgt i32 %2, 0
  br i1 %5, label %.lr.ph.preheader, label %._crit_edge

.lr.ph.preheader:                                 ; preds = %3
  %wide.trip.count = zext nneg i32 %2 to i64
  br label %.lr.ph

.lr.ph:                                           ; preds = %.lr.ph.preheader, %_ZN2cv6hfloatC2Ef.exit
  %indvars.iv = phi i64 [ 0, %.lr.ph.preheader ], [ %indvars.iv.next, %_ZN2cv6hfloatC2Ef.exit ]
  %6 = getelementptr inbounds float, ptr %0, i64 %indvars.iv
  %7 = load float, ptr %6, align 4
  %8 = call float @llvm.fabs.f32(float %7)
  %9 = bitcast float %8 to i32
  %10 = icmp ugt i32 %9, 1199570943
  br i1 %10, label %11, label %14

11:                                               ; preds = %.lr.ph
  %12 = icmp ugt i32 %9, 2139095040
  %13 = select i1 %12, i16 32256, i16 31744
  br label %_ZN2cv6hfloatC2Ef.exit

14:                                               ; preds = %.lr.ph
  %15 = icmp ult i32 %9, 947912704
  br i1 %15, label %16, label %20

16:                                               ; preds = %14
  %17 = fadd float %8, 5.000000e-01
  %18 = bitcast float %17 to i32
  %19 = trunc i32 %18 to i16
  br label %_ZN2cv6hfloatC2Ef.exit

20:                                               ; preds = %14
  %21 = add nuw nsw i32 %9, 134221823
  %22 = lshr i32 %9, 13
  %23 = and i32 %22, 1
  %24 = add nuw nsw i32 %21, %23
  %25 = lshr i32 %24, 13
  %26 = trunc i32 %25 to i16
  br label %_ZN2cv6hfloatC2Ef.exit

_ZN2cv6hfloatC2Ef.exit:                           ; preds = %11, %16, %20
  %27 = phi i16 [ %19, %16 ], [ %26, %20 ], [ %13, %11 ]
  %28 = bitcast float %7 to i32
  %29 = lshr i32 %28, 16
  %30 = trunc nuw i32 %29 to i16
  %31 = and i16 %30, -32768
  %32 = or i16 %27, %31
  %33 = getelementptr inbounds %"class.cv::hfloat", ptr %1, i64 %indvars.iv
  store i16 %32, ptr %33, align 2
  %indvars.iv.next = add nuw nsw i64 %indvars.iv, 1
  %exitcond.not = icmp eq i64 %indvars.iv.next, %wide.trip.count
  br i1 %exitcond.not, label %._crit_edge, label %.lr.ph, !llvm.loop !6

._crit_edge:                                      ; preds = %_ZN2cv6hfloatC2Ef.exit, %3
  %34 = getelementptr inbounds i8, ptr %4, i64 8
  %35 = load i32, ptr %34, align 8
  %.not.i = icmp eq i32 %35, 0
  br i1 %.not.i, label %_ZN2cv5utils5trace7details6RegionD2Ev.exit, label %36

36:                                               ; preds = %._crit_edge
  invoke void @_ZN2cv5utils5trace7details6Region7destroyEv(ptr noundef nonnull align 8 dereferenceable(12) %4)
          to label %_ZN2cv5utils5trace7details6RegionD2Ev.exit unwind label %37

37:                                               ; preds = %36
  %38 = landingpad { ptr, i32 }
          catch ptr null
  %39 = extractvalue { ptr, i32 } %38, 0
  call void @__clang_call_terminate(ptr %39) #14
  unreachable

_ZN2cv5utils5trace7details6RegionD2Ev.exit:       ; preds = %._crit_edge, %36
  ret void
}